target datalayout = "e-m:e-p270:32:32-p271:32:32-p272:64:64-i64:64-i128:128-f80:128-n8:16:32:64-S128"
target triple = "x86_64-pc-linux-gnu"

%struct.jit_State = type { %struct.GCtrace, ptr, ptr, ptr, ptr, ptr, ptr, i32, i32, i32, i8, i8, %struct.IRType1, i8, %struct.FoldState, ptr, i32, i32, i32, i32, i32, i32, i32, [1 x i32], [5 x %union.TValue], [3 x %union.TValue], ptr, i32, i32, i32, i32, ptr, ptr, i32, i32, i8, ptr, i32, i32, i16, [101 x i16], [258 x i32], [15 x i32], [16 x ptr], [64 x %struct.HotPenalty], i32, [16 x %struct.BPropEntry], i32, %struct.ScEvEntry, ptr, i32, i32, i32, ptr, i32, i32, ptr, ptr, ptr, i64, i64, %union.TValue, ptr, i32, i32 }
%struct.GCtrace = type { %struct.GCRef, i8, i8, i16, i32, i32, %struct.GCRef, ptr, i32, i32, ptr, ptr, %struct.GCRef, %struct.MRef, i32, i32, ptr, i32, i16, i16, i16, i16, i16, i16, i16, i8, i8, i8, i8 }
%struct.GCRef = type { i64 }
%struct.MRef = type { i64 }
%struct.IRType1 = type { i8 }
%struct.FoldState = type { %union.IRIns, [2 x %union.IRIns], [2 x %union.IRIns] }
%union.IRIns = type { %struct.GCRef }
%struct.HotPenalty = type { %struct.MRef, i16, i16 }
%struct.BPropEntry = type { i16, i16, i32 }
%struct.ScEvEntry = type { %struct.MRef, i16, i16, i16, i16, %struct.IRType1, i8 }
%union.TValue = type { i64 }
%struct.anon.0 = type { i32, %struct.IRType1, i8, i8, i8 }
%struct.anon = type { i16, i16, i16, i16 }

; Function Attrs: alwaysinline nounwind uwtable
define internal i32 @ir_nextk64(ptr noundef %0) #5 {
  %2 = alloca ptr, align 8
  %3 = alloca i32, align 4
  store ptr %0, ptr %2, align 8, !tbaa !4
  call void @llvm.lifetime.start.p0(i64 4, ptr %3) #10
  %4 = load ptr, ptr %2, align 8, !tbaa !4
  %5 = getelementptr inbounds nuw %struct.jit_State, ptr %4, i32 0, i32 0
  %6 = getelementptr inbounds nuw %struct.GCtrace, ptr %5, i32 0, i32 8
  %7 = load i32, ptr %6, align 8, !tbaa !50
  %8 = sub i32 %7, 2
  store i32 %8, ptr %3, align 4, !tbaa !32
  %9 = load i32, ptr %3, align 4, !tbaa !32
  %10 = load ptr, ptr %2, align 8, !tbaa !4
  %11 = getelementptr inbounds nuw %struct.jit_State, ptr %10, i32 0, i32 28
  %12 = load i32, ptr %11, align 4, !tbaa !29
  %13 = icmp ult i32 %9, %12
  %14 = xor i1 %13, true
  %15 = xor i1 %14, true
  %16 = zext i1 %15 to i32
  %17 = sext i32 %16 to i64
  %18 = call i64 @llvm.expect.i64(i64 %17, i64 0)
  %19 = icmp ne i64 %18, 0
  br i1 %19, label %20, label %22

20:                                               ; preds = %1
  %21 = load ptr, ptr %2, align 8, !tbaa !4
  call void @lj_ir_growbot(ptr noundef %21)
  br label %22

22:                                               ; preds = %20, %1
  %23 = load i32, ptr %3, align 4, !tbaa !32
  %24 = load ptr, ptr %2, align 8, !tbaa !4
  %25 = getelementptr inbounds nuw %struct.jit_State, ptr %24, i32 0, i32 0
  %26 = getelementptr inbounds nuw %struct.GCtrace, ptr %25, i32 0, i32 8
  store i32 %23, ptr %26, align 8, !tbaa !50
  %27 = load i32, ptr %3, align 4, !tbaa !32
  call void @llvm.lifetime.end.p0(i64 4, ptr %3) #10
  ret i32 %27
}

; Function Attrs: nounwind uwtable
define hidden i32 @lj_ir_k64(ptr noundef %0, i32 noundef %1, i64 noundef %2) #3 {
  %4 = alloca ptr, align 8
  %5 = alloca i32, align 4
  %6 = alloca i64, align 8
  %7 = alloca ptr, align 8
  %8 = alloca ptr, align 8
  %9 = alloca i32, align 4
  %10 = alloca i32, align 4
  store ptr %0, ptr %4, align 8, !tbaa !4
  store i32 %1, ptr %5, align 4, !tbaa !32
  store i64 %2, ptr %6, align 8, !tbaa !48
  call void @llvm.lifetime.start.p0(i64 8, ptr %7) #10
  call void @llvm.lifetime.start.p0(i64 8, ptr %8) #10
  %11 = load ptr, ptr %4, align 8, !tbaa !4
  %12 = getelementptr inbounds nuw %struct.jit_State, ptr %11, i32 0, i32 0
  %13 = getelementptr inbounds nuw %struct.GCtrace, ptr %12, i32 0, i32 7
  %14 = load ptr, ptr %13, align 8, !tbaa !34
  store ptr %14, ptr %8, align 8, !tbaa !30
  call void @llvm.lifetime.start.p0(i64 4, ptr %9) #10
  call void @llvm.lifetime.start.p0(i64 4, ptr %10) #10
  %15 = load i32, ptr %5, align 4, !tbaa !32
  %16 = icmp eq i32 %15, 28
  %17 = select i1 %16, i32 14, i32 21
  store i32 %17, ptr %10, align 4, !tbaa !32
  %18 = load ptr, ptr %4, align 8, !tbaa !4
  %19 = getelementptr inbounds nuw %struct.jit_State, ptr %18, i32 0, i32 40
  %20 = load i32, ptr %5, align 4, !tbaa !32
  %21 = zext i32 %20 to i64
  %22 = getelementptr inbounds nuw [101 x i16], ptr %19, i64 0, i64 %21
  %23 = load i16, ptr %22, align 2, !tbaa !36
  %24 = zext i16 %23 to i32
  store i32 %24, ptr %9, align 4, !tbaa !32
  br label %25

25:                                               ; preds = %39, %3
  %26 = load i32, ptr %9, align 4, !tbaa !32
  %27 = icmp ne i32 %26, 0
  br i1 %27, label %28, label %47

28:                                               ; preds = %25
  %29 = load ptr, ptr %8, align 8, !tbaa !30
  %30 = load i32, ptr %9, align 4, !tbaa !32
  %31 = zext i32 %30 to i64
  %32 = getelementptr inbounds nuw %union.IRIns, ptr %29, i64 %31
  %33 = getelementptr inbounds %union.IRIns, ptr %32, i64 1
  %34 = load i64, ptr %33, align 8, !tbaa !35
  %35 = load i64, ptr %6, align 8, !tbaa !48
  %36 = icmp eq i64 %34, %35
  br i1 %36, label %37, label %38

37:                                               ; preds = %28
  br label %86

38:                                               ; preds = %28
  br label %39

39:                                               ; preds = %38
  %40 = load ptr, ptr %8, align 8, !tbaa !30
  %41 = load i32, ptr %9, align 4, !tbaa !32
  %42 = zext i32 %41 to i64
  %43 = getelementptr inbounds nuw %union.IRIns, ptr %40, i64 %42
  %44 = getelementptr inbounds nuw %struct.anon, ptr %43, i32 0, i32 3
  %45 = load i16, ptr %44, align 2, !tbaa !35
  %46 = zext i16 %45 to i32
  store i32 %46, ptr %9, align 4, !tbaa !32
  br label %25, !llvm.loop !51

47:                                               ; preds = %25
  %48 = load ptr, ptr %4, align 8, !tbaa !4
  %49 = call i32 @ir_nextk64(ptr noundef %48)
  store i32 %49, ptr %9, align 4, !tbaa !32
  %50 = load ptr, ptr %4, align 8, !tbaa !4
  %51 = getelementptr inbounds nuw %struct.jit_State, ptr %50, i32 0, i32 0
  %52 = getelementptr inbounds nuw %struct.GCtrace, ptr %51, i32 0, i32 7
  %53 = load ptr, ptr %52, align 8, !tbaa !34
  %54 = load i32, ptr %9, align 4, !tbaa !32
  %55 = zext i32 %54 to i64
  %56 = getelementptr inbounds nuw %union.IRIns, ptr %53, i64 %55
  store ptr %56, ptr %7, align 8, !tbaa !30
  %57 = load i64, ptr %6, align 8, !tbaa !48
  %58 = load ptr, ptr %7, align 8, !tbaa !30
  %59 = getelementptr inbounds %union.IRIns, ptr %58, i64 1
  store i64 %57, ptr %59, align 8, !tbaa !35
  %60 = load i32, ptr %10, align 4, !tbaa !32
  %61 = trunc i32 %60 to i8
  %62 = load ptr, ptr %7, align 8, !tbaa !30
  %63 = getelementptr inbounds nuw %struct.anon.0, ptr %62, i32 0, i32 1
  %64 = getelementptr inbounds nuw %struct.IRType1, ptr %63, i32 0, i32 0
  store i8 %61, ptr %64, align 4, !tbaa !35
  %65 = load i32, ptr %5, align 4, !tbaa !32
  %66 = trunc i32 %65 to i8
  %67 = load ptr, ptr %7, align 8, !tbaa !30
  %68 = getelementptr inbounds nuw %struct.anon.0, ptr %67, i32 0, i32 2
  store i8 %66, ptr %68, align 1, !tbaa !35
  %69 = load ptr, ptr %7, align 8, !tbaa !30
  %70 = getelementptr inbounds nuw %struct.anon.0, ptr %69, i32 0, i32 0
  store i32 0, ptr %70, align 8, !tbaa !35
  %71 = load ptr, ptr %4, align 8, !tbaa !4
  %72 = getelementptr inbounds nuw %struct.jit_State, ptr %71, i32 0, i32 40
  %73 = load i32, ptr %5, align 4, !tbaa !32
  %74 = zext i32 %73 to i64
  %75 = getelementptr inbounds nuw [101 x i16], ptr %72, i64 0, i64 %74
  %76 = load i16, ptr %75, align 2, !tbaa !36
  %77 = load ptr, ptr %7, align 8, !tbaa !30
  %78 = getelementptr inbounds nuw %struct.anon, ptr %77, i32 0, i32 3
  store i16 %76, ptr %78, align 2, !tbaa !35
  %79 = load i32, ptr %9, align 4, !tbaa !32
  %80 = trunc i32 %79 to i16
  %81 = load ptr, ptr %4, align 8, !tbaa !4
  %82 = getelementptr inbounds nuw %struct.jit_State, ptr %81, i32 0, i32 40
  %83 = load i32, ptr %5, align 4, !tbaa !32
  %84 = zext i32 %83 to i64
  %85 = getelementptr inbounds nuw [101 x i16], ptr %82, i64 0, i64 %84
  store i16 %80, ptr %85, align 2, !tbaa !36
  br label %86

86:                                               ; preds = %47, %37
  %87 = load i32, ptr %9, align 4, !tbaa !32
  %88 = load i32, ptr %10, align 4, !tbaa !32
  %89 = shl i32 %88, 24
  %90 = add i32 %87, %89
  call void @llvm.lifetime.end.p0(i64 4, ptr %10) #10
  call void @llvm.lifetime.end.p0(i64 4, ptr %9) #10
  call void @llvm.lifetime.end.p0(i64 8, ptr %8) #10
  call void @llvm.lifetime.end.p0(i64 8, ptr %7) #10
  ret i32 %90
}

; Function Attrs: nounwind uwtable
define hidden i32 @lj_ir_knum_u64(ptr noundef %0, i64 noundef %1) #3 {
  %3 = alloca ptr, align 8
  %4 = alloca i64, align 8
  store ptr %0, ptr %3, align 8, !tbaa !4
  store i64 %1, ptr %4, align 8, !tbaa !48
  %5 = load ptr, ptr %3, align 8, !tbaa !4
  %6 = load i64, ptr %4, align 8, !tbaa !48
  %7 = call i32 @lj_ir_k64(ptr noundef %5, i32 noundef 28, i64 noundef %6)
  ret i32 %7
}